target datalayout = "e-m:e-p270:32:32-p271:32:32-p272:64:64-i64:64-i128:128-f80:128-n8:16:32:64-S128"
target triple = "x86_64-pc-linux-gnu"

%"class.rocksdb::Slice" = type { ptr, i64 }

; Function Attrs: mustprogress nounwind uwtable
define linkonce_odr void @_ZN7rocksdb5Slice13remove_prefixEm(ptr noundef nonnull align 8 dereferenceable(16) %0, i64 noundef %1) #2 comdat align 2 {
  %3 = alloca ptr, align 8
  %4 = alloca i64, align 8
  store ptr %0, ptr %3, align 8, !tbaa !40
  store i64 %1, ptr %4, align 8, !tbaa !32
  %5 = load ptr, ptr %3, align 8
  %6 = load i64, ptr %4, align 8, !tbaa !32
  %7 = getelementptr inbounds nuw %"class.rocksdb::Slice", ptr %5, i32 0, i32 0
  %8 = load ptr, ptr %7, align 8, !tbaa !45
  %9 = getelementptr inbounds nuw i8, ptr %8, i64 %6
  store ptr %9, ptr %7, align 8, !tbaa !45
  %10 = load i64, ptr %4, align 8, !tbaa !32
  %11 = getelementptr inbounds nuw %"class.rocksdb::Slice", ptr %5, i32 0, i32 1
  %12 = load i64, ptr %11, align 8, !tbaa !43
  %13 = sub i64 %12, %10
  store i64 %13, ptr %11, align 8, !tbaa !43
  ret void
}

; Function Attrs: mustprogress nounwind uwtable
define linkonce_odr noundef signext i8 @_ZNK7rocksdb5SliceixEm(ptr noundef nonnull align 8 dereferenceable(16) %0, i64 noundef %1) #2 comdat align 2 {
  %3 = alloca ptr, align 8
  %4 = alloca i64, align 8
  store ptr %0, ptr %3, align 8, !tbaa !40
  store i64 %1, ptr %4, align 8, !tbaa !32
  %5 = load ptr, ptr %3, align 8
  %6 = getelementptr inbounds nuw %"class.rocksdb::Slice", ptr %5, i32 0, i32 0
  %7 = load ptr, ptr %6, align 8, !tbaa !45
  %8 = load i64, ptr %4, align 8, !tbaa !32
  %9 = getelementptr inbounds nuw i8, ptr %7, i64 %8
  %10 = load i8, ptr %9, align 1, !tbaa !15
  ret i8 %10
}

; Function Attrs: mustprogress nounwind uwtable
define linkonce_odr noundef zeroext i1 @_ZNK7rocksdb5Slice5emptyEv(ptr noundef nonnull align 8 dereferenceable(16) %0) #2 comdat align 2 {
  %2 = alloca ptr, align 8
  store ptr %0, ptr %2, align 8, !tbaa !40
  %3 = load ptr, ptr %2, align 8
  %4 = getelementptr inbounds nuw %"class.rocksdb::Slice", ptr %3, i32 0, i32 1
  %5 = load i64, ptr %4, align 8, !tbaa !43
  %6 = icmp eq i64 %5, 0
  ret i1 %6
}

; Function Attrs: mustprogress uwtable
define noundef zeroext i1 @_ZN7rocksdb20ConsumeDecimalNumberEPNS_5SliceEPm(ptr noundef %0, ptr noundef %1) #3 {
  %3 = alloca i1, align 1
  %4 = alloca ptr, align 8
  %5 = alloca ptr, align 8
  %6 = alloca i64, align 8
  %7 = alloca i32, align 4
  %8 = alloca i8, align 1
  %9 = alloca i32, align 4
  %10 = alloca i32, align 4
  store ptr %0, ptr %4, align 8, !tbaa !40
  store ptr %1, ptr %5, align 8, !tbaa !51
  call void @llvm.lifetime.start.p0(i64 8, ptr %6) #4
  store i64 0, ptr %6, align 8, !tbaa !32
  call void @llvm.lifetime.start.p0(i64 4, ptr %7) #4
  store i32 0, ptr %7, align 4, !tbaa !34
  br label %11

11:                                               ; preds = %55, %2
  %12 = load ptr, ptr %4, align 8, !tbaa !40
  %13 = call noundef zeroext i1 @_ZNK7rocksdb5Slice5emptyEv(ptr noundef nonnull align 8 dereferenceable(16) %12)
  %14 = xor i1 %13, true
  br i1 %14, label %15, label %56

15:                                               ; preds = %11
  call void @llvm.lifetime.start.p0(i64 1, ptr %8) #4
  %16 = load ptr, ptr %4, align 8, !tbaa !40
  %17 = call noundef signext i8 @_ZNK7rocksdb5SliceixEm(ptr noundef nonnull align 8 dereferenceable(16) %16, i64 noundef 0)
  store i8 %17, ptr %8, align 1, !tbaa !15
  %18 = load i8, ptr %8, align 1, !tbaa !15
  %19 = sext i8 %18 to i32
  %20 = icmp sge i32 %19, 48
  br i1 %20, label %21, label %51

21:                                               ; preds = %15
  %22 = load i8, ptr %8, align 1, !tbaa !15
  %23 = sext i8 %22 to i32
  %24 = icmp sle i32 %23, 57
  br i1 %24, label %25, label %51

25:                                               ; preds = %21
  %26 = load i32, ptr %7, align 4, !tbaa !34
  %27 = add nsw i32 %26, 1
  store i32 %27, ptr %7, align 4, !tbaa !34
  call void @llvm.lifetime.start.p0(i64 4, ptr %9) #4
  %28 = load i8, ptr %8, align 1, !tbaa !15
  %29 = sext i8 %28 to i32
  %30 = sub nsw i32 %29, 48
  store i32 %30, ptr %9, align 4, !tbaa !34
  %31 = load i64, ptr %6, align 8, !tbaa !32
  %32 = icmp ugt i64 %31, 1844674407370955161
  br i1 %32, label %40, label %33

33:                                               ; preds = %25
  %34 = load i64, ptr %6, align 8, !tbaa !32
  %35 = icmp eq i64 %34, 1844674407370955161
  br i1 %35, label %36, label %41

36:                                               ; preds = %33
  %37 = load i32, ptr %9, align 4, !tbaa !34
  %38 = zext i32 %37 to i64
  %39 = icmp ugt i64 %38, 5
  br i1 %39, label %40, label %41

40:                                               ; preds = %36, %25
  store i1 false, ptr %3, align 1
  store i32 1, ptr %10, align 4
  br label %48

41:                                               ; preds = %36, %33
  %42 = load i64, ptr %6, align 8, !tbaa !32
  %43 = mul i64 %42, 10
  %44 = load i32, ptr %9, align 4, !tbaa !34
  %45 = zext i32 %44 to i64
  %46 = add i64 %43, %45
  store i64 %46, ptr %6, align 8, !tbaa !32
  %47 = load ptr, ptr %4, align 8, !tbaa !40
  call void @_ZN7rocksdb5Slice13remove_prefixEm(ptr noundef nonnull align 8 dereferenceable(16) %47, i64 noundef 1)
  store i32 0, ptr %10, align 4
  br label %48

48:                                               ; preds = %41, %40
  call void @llvm.lifetime.end.p0(i64 4, ptr %9) #4
  %49 = load i32, ptr %10, align 4
  switch i32 %49, label %53 [
    i32 0, label %50
  ]

50:                                               ; preds = %48
  br label %52

51:                                               ; preds = %21, %15
  store i32 3, ptr %10, align 4
  br label %53

52:                                               ; preds = %50
  store i32 0, ptr %10, align 4
  br label %53

53:                                               ; preds = %52, %51, %48
  call void @llvm.lifetime.end.p0(i64 1, ptr %8) #4
  %54 = load i32, ptr %10, align 4
  switch i32 %54, label %61 [
    i32 0, label %55
    i32 3, label %56
  ]

55:                                               ; preds = %53
  br label %11, !llvm.loop !53

56:                                               ; preds = %53, %11
  %57 = load i64, ptr %6, align 8, !tbaa !32
  %58 = load ptr, ptr %5, align 8, !tbaa !51
  store i64 %57, ptr %58, align 8, !tbaa !32
  %59 = load i32, ptr %7, align 4, !tbaa !34
  %60 = icmp sgt i32 %59, 0
  store i1 %60, ptr %3, align 1
  store i32 1, ptr %10, align 4
  br label %61

61:                                               ; preds = %56, %53
  call void @llvm.lifetime.end.p0(i64 4, ptr %7) #4
  call void @llvm.lifetime.end.p0(i64 8, ptr %6) #4
  %62 = load i1, ptr %3, align 1
  ret i1 %62
}